target datalayout = "e-m:e-p270:32:32-p271:32:32-p272:64:64-i64:64-i128:128-f80:128-n8:16:32:64-S128"
target triple = "x86_64-pc-linux-gnu"

%struct._GSList = type { ptr, ptr }

@conversation_proto_names = internal global ptr null, align 8

; Function Attrs: null_pointer_is_valid sspstrong uwtable
define void @add_conversation_filter_protocol(ptr noundef %0) #0 {
  %2 = alloca ptr, align 8
  %3 = alloca ptr, align 8
  %4 = alloca i32, align 4
  store ptr %0, ptr %2, align 8
  call void @llvm.lifetime.start.p0(i64 8, ptr %3) #8
  %5 = load ptr, ptr @conversation_proto_names, align 8
  store ptr %5, ptr %3, align 8
  br label %6

6:                                                ; preds = %27, %1
  %7 = load ptr, ptr %3, align 8
  %8 = icmp ne ptr %7, null
  br i1 %8, label %10, label %9

9:                                                ; preds = %6
  store i32 2, ptr %4, align 4
  br label %29

10:                                               ; preds = %6
  %11 = load ptr, ptr %2, align 8
  %12 = load ptr, ptr %3, align 8
  %13 = getelementptr inbounds nuw %struct._GSList, ptr %12, i32 0, i32 0
  %14 = load ptr, ptr %13, align 8
  %15 = call i32 @strcmp(ptr noundef %11, ptr noundef %14) #9
  %16 = icmp eq i32 %15, 0
  br i1 %16, label %17, label %18

17:                                               ; preds = %10
  store i32 1, ptr %4, align 4
  br label %29

18:                                               ; preds = %10
  br label %19

19:                                               ; preds = %18
  %20 = load ptr, ptr %3, align 8
  %21 = icmp ne ptr %20, null
  br i1 %21, label %22, label %26

22:                                               ; preds = %19
  %23 = load ptr, ptr %3, align 8
  %24 = getelementptr inbounds nuw %struct._GSList, ptr %23, i32 0, i32 1
  %25 = load ptr, ptr %24, align 8
  br label %27

26:                                               ; preds = %19
  br label %27

27:                                               ; preds = %26, %22
  %28 = phi ptr [ %25, %22 ], [ null, %26 ]
  store ptr %28, ptr %3, align 8
  br label %6, !llvm.loop !6

29:                                               ; preds = %17, %9
  call void @llvm.lifetime.end.p0(i64 8, ptr %3) #8
  %30 = load i32, ptr %4, align 4
  switch i32 %30, label %36 [
    i32 2, label %31
    i32 1, label %35
  ]

31:                                               ; preds = %29
  %32 = load ptr, ptr @conversation_proto_names, align 8
  %33 = load ptr, ptr %2, align 8
  %34 = call ptr @g_slist_prepend(ptr noundef %32, ptr noundef %33)
  store ptr %34, ptr @conversation_proto_names, align 8
  br label %35

35:                                               ; preds = %31, %29
  ret void

36:                                               ; preds = %29
  unreachable
}