; Function Attrs: null_pointer_is_valid sspstrong uwtable
define void @add_conversation_filter_protocol(ptr noundef %0) local_unnamed_addr #0 {
  %.0610 = load ptr, ptr @conversation_proto_names, align 8
  %.not11 = icmp eq ptr %.0610, null
  br i1 %.not11, label %._crit_edge, label %.lr.ph

2:                                                ; preds = %.lr.ph
  %3 = getelementptr inbounds nuw i8, ptr %.0612, i64 8
  %.06 = load ptr, ptr %3, align 8
  %.not = icmp eq ptr %.06, null
  br i1 %.not, label %._crit_edge, label %.lr.ph, !llvm.loop !6

.lr.ph:                                           ; preds = %1, %2
  %.0612 = phi ptr [ %.06, %2 ], [ %.0610, %1 ]
  %4 = load ptr, ptr %.0612, align 8
  %5 = tail call i32 @strcmp(ptr noundef %0, ptr noundef %4) #4
  %6 = icmp eq i32 %5, 0
  br i1 %6, label %.loopexit, label %2

._crit_edge:                                      ; preds = %2, %1
  %7 = tail call ptr @g_slist_prepend(ptr noundef %.0610, ptr noundef %0)
  store ptr %7, ptr @conversation_proto_names, align 8
  br label %.loopexit

.loopexit:                                        ; preds = %.lr.ph, %._crit_edge
  ret void
}